target datalayout = "e-m:e-p270:32:32-p271:32:32-p272:64:64-i64:64-i128:128-f80:128-n8:16:32:64-S128"
target triple = "x86_64-pc-linux-gnu"

%struct.pcapng_block_header_s = type { i32, i32 }
%struct._GArray = type { ptr, i32 }
%struct.pcapng_section_header_block_s = type { i32, i16, i16, i64 }
%struct.wtapng_section_mandatory_s = type { i64 }
%struct.wtap_dumper = type { ptr, i32, i32, i32, i32, i32, i64, ptr, ptr, ptr, ptr, ptr, ptr, ptr, ptr, ptr, ptr, ptr, ptr, ptr, i32, i32, i32 }
%struct.compute_options_size_t = type { i32, ptr }
%struct.pcapng_option_header = type { i16, i16 }
%struct.write_options_t = type { ptr, ptr, ptr }

; Function Attrs: nounwind uwtable
define internal i32 @pcapng_write_option_eofopt(ptr noundef %0, ptr noundef %1) #0 {
  %3 = alloca i32, align 4
  %4 = alloca ptr, align 8
  %5 = alloca ptr, align 8
  %6 = alloca %struct.pcapng_option_header, align 2
  store ptr %0, ptr %4, align 8
  store ptr %1, ptr %5, align 8
  %7 = getelementptr inbounds %struct.pcapng_option_header, ptr %6, i32 0, i32 0
  store i16 0, ptr %7, align 2
  %8 = getelementptr inbounds %struct.pcapng_option_header, ptr %6, i32 0, i32 1
  store i16 0, ptr %8, align 2
  %9 = load ptr, ptr %4, align 8
  %10 = load ptr, ptr %5, align 8
  %11 = call i32 @wtap_dump_file_write(ptr noundef %9, ptr noundef %6, i64 noundef 4, ptr noundef %10)
  %12 = icmp ne i32 %11, 0
  br i1 %12, label %14, label %13

13:                                               ; preds = %2
  store i32 0, ptr %3, align 4
  br label %15

14:                                               ; preds = %2
  store i32 1, ptr %3, align 4
  br label %15

15:                                               ; preds = %14, %13
  %16 = load i32, ptr %3, align 4
  ret i32 %16
}

; Function Attrs: nounwind uwtable
define internal i32 @write_options(ptr noundef %0, ptr noundef %1, ptr noundef %2, ptr noundef %3) #0 {
  %5 = alloca i32, align 4
  %6 = alloca ptr, align 8
  %7 = alloca ptr, align 8
  %8 = alloca ptr, align 8
  %9 = alloca ptr, align 8
  %10 = alloca %struct.write_options_t, align 8
  store ptr %0, ptr %6, align 8
  store ptr %1, ptr %7, align 8
  store ptr %2, ptr %8, align 8
  store ptr %3, ptr %9, align 8
  %11 = load ptr, ptr %6, align 8
  %12 = getelementptr inbounds %struct.write_options_t, ptr %10, i32 0, i32 0
  store ptr %11, ptr %12, align 8
  %13 = load ptr, ptr %9, align 8
  %14 = getelementptr inbounds %struct.write_options_t, ptr %10, i32 0, i32 1
  store ptr %13, ptr %14, align 8
  %15 = load ptr, ptr %8, align 8
  %16 = getelementptr inbounds %struct.write_options_t, ptr %10, i32 0, i32 2
  store ptr %15, ptr %16, align 8
  %17 = load ptr, ptr %7, align 8
  %18 = call i32 @wtap_block_foreach_option(ptr noundef %17, ptr noundef @write_block_option, ptr noundef %10)
  %19 = icmp ne i32 %18, 0
  br i1 %19, label %21, label %20

20:                                               ; preds = %4
  store i32 0, ptr %5, align 4
  br label %25

21:                                               ; preds = %4
  %22 = load ptr, ptr %6, align 8
  %23 = load ptr, ptr %9, align 8
  %24 = call i32 @pcapng_write_option_eofopt(ptr noundef %22, ptr noundef %23)
  store i32 %24, ptr %5, align 4
  br label %25

25:                                               ; preds = %21, %20
  %26 = load i32, ptr %5, align 4
  ret i32 %26
}

; Function Attrs: nounwind uwtable
define internal i32 @compute_options_size(ptr noundef %0, ptr noundef %1) #0 {
  %3 = alloca ptr, align 8
  %4 = alloca ptr, align 8
  %5 = alloca %struct.compute_options_size_t, align 8
  store ptr %0, ptr %3, align 8
  store ptr %1, ptr %4, align 8
  %6 = getelementptr inbounds %struct.compute_options_size_t, ptr %5, i32 0, i32 0
  store i32 0, ptr %6, align 8
  %7 = load ptr, ptr %4, align 8
  %8 = getelementptr inbounds %struct.compute_options_size_t, ptr %5, i32 0, i32 1
  store ptr %7, ptr %8, align 8
  %9 = load ptr, ptr %3, align 8
  %10 = call i32 @wtap_block_foreach_option(ptr noundef %9, ptr noundef @compute_block_option_size, ptr noundef %5)
  %11 = getelementptr inbounds %struct.compute_options_size_t, ptr %5, i32 0, i32 0
  %12 = load i32, ptr %11, align 8
  %13 = icmp ne i32 %12, 0
  br i1 %13, label %14, label %18

14:                                               ; preds = %2
  %15 = getelementptr inbounds %struct.compute_options_size_t, ptr %5, i32 0, i32 0
  %16 = load i32, ptr %15, align 8
  %17 = add i32 %16, 4
  store i32 %17, ptr %15, align 8
  br label %18

18:                                               ; preds = %14, %2
  %19 = getelementptr inbounds %struct.compute_options_size_t, ptr %5, i32 0, i32 0
  %20 = load i32, ptr %19, align 8
  ret i32 %20
}

; Function Attrs: nounwind uwtable
define internal i32 @pcapng_write_section_header_block(ptr noundef %0, ptr noundef %1) #0 {
  %3 = alloca i32, align 4
  %4 = alloca ptr, align 8
  %5 = alloca ptr, align 8
  %6 = alloca %struct.pcapng_block_header_s, align 4
  %7 = alloca %struct.pcapng_section_header_block_s, align 8
  %8 = alloca i32, align 4
  %9 = alloca ptr, align 8
  %10 = alloca ptr, align 8
  store ptr %0, ptr %4, align 8
  store ptr %1, ptr %5, align 8
  store ptr null, ptr %9, align 8
  %11 = load ptr, ptr %4, align 8
  %12 = getelementptr inbounds %struct.wtap_dumper, ptr %11, i32 0, i32 13
  %13 = load ptr, ptr %12, align 8
  %14 = icmp ne ptr %13, null
  br i1 %14, label %15, label %30

15:                                               ; preds = %2
  %16 = load ptr, ptr %4, align 8
  %17 = getelementptr inbounds %struct.wtap_dumper, ptr %16, i32 0, i32 13
  %18 = load ptr, ptr %17, align 8
  %19 = getelementptr inbounds %struct._GArray, ptr %18, i32 0, i32 1
  %20 = load i32, ptr %19, align 8
  %21 = icmp ugt i32 %20, 0
  br i1 %21, label %22, label %30

22:                                               ; preds = %15
  %23 = load ptr, ptr %4, align 8
  %24 = getelementptr inbounds %struct.wtap_dumper, ptr %23, i32 0, i32 13
  %25 = load ptr, ptr %24, align 8
  %26 = getelementptr inbounds %struct._GArray, ptr %25, i32 0, i32 0
  %27 = load ptr, ptr %26, align 8
  %28 = getelementptr ptr, ptr %27, i64 0
  %29 = load ptr, ptr %28, align 8
  store ptr %29, ptr %9, align 8
  br label %30

30:                                               ; preds = %22, %15, %2
  %31 = getelementptr inbounds %struct.pcapng_block_header_s, ptr %6, i32 0, i32 1
  store i32 28, ptr %31, align 4
  store i32 0, ptr %8, align 4
  %32 = load ptr, ptr %9, align 8
  %33 = icmp ne ptr %32, null
  br i1 %33, label %34, label %43

34:                                               ; preds = %30
  br label %35

35:                                               ; preds = %34
  br label %36

36:                                               ; preds = %35
  %37 = load ptr, ptr %9, align 8
  %38 = call i32 @compute_options_size(ptr noundef %37, ptr noundef @compute_shb_option_size)
  store i32 %38, ptr %8, align 4
  %39 = load i32, ptr %8, align 4
  %40 = getelementptr inbounds %struct.pcapng_block_header_s, ptr %6, i32 0, i32 1
  %41 = load i32, ptr %40, align 4
  %42 = add i32 %41, %39
  store i32 %42, ptr %40, align 4
  br label %43

43:                                               ; preds = %36, %30
  br label %44

44:                                               ; preds = %43
  br label %45

45:                                               ; preds = %44
  %46 = getelementptr inbounds %struct.pcapng_block_header_s, ptr %6, i32 0, i32 0
  store i32 168627466, ptr %46, align 4
  %47 = load ptr, ptr %4, align 8
  %48 = load ptr, ptr %5, align 8
  %49 = call i32 @wtap_dump_file_write(ptr noundef %47, ptr noundef %6, i64 noundef 8, ptr noundef %48)
  %50 = icmp ne i32 %49, 0
  br i1 %50, label %52, label %51

51:                                               ; preds = %45
  store i32 0, ptr %3, align 4
  br label %96

52:                                               ; preds = %45
  %53 = getelementptr inbounds %struct.pcapng_section_header_block_s, ptr %7, i32 0, i32 0
  store i32 439041101, ptr %53, align 8
  %54 = getelementptr inbounds %struct.pcapng_section_header_block_s, ptr %7, i32 0, i32 1
  store i16 1, ptr %54, align 4
  %55 = getelementptr inbounds %struct.pcapng_section_header_block_s, ptr %7, i32 0, i32 2
  store i16 0, ptr %55, align 2
  %56 = load ptr, ptr %9, align 8
  %57 = icmp ne ptr %56, null
  br i1 %57, label %58, label %65

58:                                               ; preds = %52
  %59 = load ptr, ptr %9, align 8
  %60 = call ptr @wtap_block_get_mandatory_data(ptr noundef %59)
  store ptr %60, ptr %10, align 8
  %61 = load ptr, ptr %10, align 8
  %62 = getelementptr inbounds %struct.wtapng_section_mandatory_s, ptr %61, i32 0, i32 0
  %63 = load i64, ptr %62, align 8
  %64 = getelementptr inbounds %struct.pcapng_section_header_block_s, ptr %7, i32 0, i32 3
  store i64 %63, ptr %64, align 8
  br label %67

65:                                               ; preds = %52
  %66 = getelementptr inbounds %struct.pcapng_section_header_block_s, ptr %7, i32 0, i32 3
  store i64 -1, ptr %66, align 8
  br label %67

67:                                               ; preds = %65, %58
  %68 = load ptr, ptr %4, align 8
  %69 = load ptr, ptr %5, align 8
  %70 = call i32 @wtap_dump_file_write(ptr noundef %68, ptr noundef %7, i64 noundef 16, ptr noundef %69)
  %71 = icmp ne i32 %70, 0
  br i1 %71, label %73, label %72

72:                                               ; preds = %67
  store i32 0, ptr %3, align 4
  br label %96

73:                                               ; preds = %67
  %74 = load ptr, ptr %9, align 8
  %75 = icmp ne ptr %74, null
  br i1 %75, label %76, label %88

76:                                               ; preds = %73
  %77 = load i32, ptr %8, align 4
  %78 = icmp ne i32 %77, 0
  br i1 %78, label %79, label %87

79:                                               ; preds = %76
  %80 = load ptr, ptr %4, align 8
  %81 = load ptr, ptr %9, align 8
  %82 = load ptr, ptr %5, align 8
  %83 = call i32 @write_options(ptr noundef %80, ptr noundef %81, ptr noundef @write_wtap_shb_option, ptr noundef %82)
  %84 = icmp ne i32 %83, 0
  br i1 %84, label %86, label %85

85:                                               ; preds = %79
  store i32 0, ptr %3, align 4
  br label %96

86:                                               ; preds = %79
  br label %87

87:                                               ; preds = %86, %76
  br label %88

88:                                               ; preds = %87, %73
  %89 = load ptr, ptr %4, align 8
  %90 = getelementptr inbounds %struct.pcapng_block_header_s, ptr %6, i32 0, i32 1
  %91 = load ptr, ptr %5, align 8
  %92 = call i32 @wtap_dump_file_write(ptr noundef %89, ptr noundef %90, i64 noundef 4, ptr noundef %91)
  %93 = icmp ne i32 %92, 0
  br i1 %93, label %95, label %94

94:                                               ; preds = %88
  store i32 0, ptr %3, align 4
  br label %96

95:                                               ; preds = %88
  store i32 1, ptr %3, align 4
  br label %96

96:                                               ; preds = %95, %94, %85, %72, %51
  %97 = load i32, ptr %3, align 4
  ret i32 %97
}

; Function Attrs: nounwind uwtable
define internal i32 @pcapng_dump_open(ptr noundef %0, ptr noundef %1, ptr noundef %2) #0 {
  %4 = alloca i32, align 4
  %5 = alloca ptr, align 8
  %6 = alloca ptr, align 8
  %7 = alloca ptr, align 8
  %8 = alloca i32, align 4
  %9 = alloca ptr, align 8
  %10 = alloca ptr, align 8
  store ptr %0, ptr %5, align 8
  store ptr %1, ptr %6, align 8
  store ptr %2, ptr %7, align 8
  br label %11

11:                                               ; preds = %3
  br label %12

12:                                               ; preds = %11
  %13 = load ptr, ptr %5, align 8
  %14 = getelementptr inbounds %struct.wtap_dumper, ptr %13, i32 0, i32 9
  store ptr @pcapng_add_idb, ptr %14, align 8
  %15 = load ptr, ptr %5, align 8
  %16 = getelementptr inbounds %struct.wtap_dumper, ptr %15, i32 0, i32 10
  store ptr @pcapng_dump, ptr %16, align 8
  %17 = load ptr, ptr %5, align 8
  %18 = getelementptr inbounds %struct.wtap_dumper, ptr %17, i32 0, i32 11
  store ptr @pcapng_dump_finish, ptr %18, align 8
  %19 = load ptr, ptr %5, align 8
  %20 = load ptr, ptr %6, align 8
  %21 = call i32 @pcapng_write_section_header_block(ptr noundef %19, ptr noundef %20)
  %22 = icmp ne i32 %21, 0
  br i1 %22, label %24, label %23

23:                                               ; preds = %12
  store i32 0, ptr %4, align 4
  br label %93

24:                                               ; preds = %12
  br label %25

25:                                               ; preds = %24
  br label %26

26:                                               ; preds = %25
  br label %27

27:                                               ; preds = %26
  br label %28

28:                                               ; preds = %27
  store i32 0, ptr %8, align 4
  br label %29

29:                                               ; preds = %54, %28
  %30 = load i32, ptr %8, align 4
  %31 = load ptr, ptr %5, align 8
  %32 = getelementptr inbounds %struct.wtap_dumper, ptr %31, i32 0, i32 15
  %33 = load ptr, ptr %32, align 8
  %34 = getelementptr inbounds %struct._GArray, ptr %33, i32 0, i32 1
  %35 = load i32, ptr %34, align 8
  %36 = icmp ult i32 %30, %35
  br i1 %36, label %37, label %57

37:                                               ; preds = %29
  %38 = load ptr, ptr %5, align 8
  %39 = getelementptr inbounds %struct.wtap_dumper, ptr %38, i32 0, i32 15
  %40 = load ptr, ptr %39, align 8
  %41 = getelementptr inbounds %struct._GArray, ptr %40, i32 0, i32 0
  %42 = load ptr, ptr %41, align 8
  %43 = load i32, ptr %8, align 4
  %44 = zext i32 %43 to i64
  %45 = getelementptr ptr, ptr %42, i64 %44
  %46 = load ptr, ptr %45, align 8
  store ptr %46, ptr %9, align 8
  %47 = load ptr, ptr %5, align 8
  %48 = load ptr, ptr %9, align 8
  %49 = load ptr, ptr %6, align 8
  %50 = call i32 @pcapng_write_if_descr_block(ptr noundef %47, ptr noundef %48, ptr noundef %49)
  %51 = icmp ne i32 %50, 0
  br i1 %51, label %53, label %52

52:                                               ; preds = %37
  store i32 0, ptr %4, align 4
  br label %93

53:                                               ; preds = %37
  br label %54

54:                                               ; preds = %53
  %55 = load i32, ptr %8, align 4
  %56 = add i32 %55, 1
  store i32 %56, ptr %8, align 4
  br label %29, !llvm.loop !13

57:                                               ; preds = %29
  %58 = load ptr, ptr %5, align 8
  %59 = getelementptr inbounds %struct.wtap_dumper, ptr %58, i32 0, i32 16
  %60 = load ptr, ptr %59, align 8
  %61 = icmp ne ptr %60, null
  br i1 %61, label %62, label %92

62:                                               ; preds = %57
  store i32 0, ptr %8, align 4
  br label %63

63:                                               ; preds = %88, %62
  %64 = load i32, ptr %8, align 4
  %65 = load ptr, ptr %5, align 8
  %66 = getelementptr inbounds %struct.wtap_dumper, ptr %65, i32 0, i32 16
  %67 = load ptr, ptr %66, align 8
  %68 = getelementptr inbounds %struct._GArray, ptr %67, i32 0, i32 1
  %69 = load i32, ptr %68, align 8
  %70 = icmp ult i32 %64, %69
  br i1 %70, label %71, label %91

71:                                               ; preds = %63
  %72 = load ptr, ptr %5, align 8
  %73 = getelementptr inbounds %struct.wtap_dumper, ptr %72, i32 0, i32 16
  %74 = load ptr, ptr %73, align 8
  %75 = getelementptr inbounds %struct._GArray, ptr %74, i32 0, i32 0
  %76 = load ptr, ptr %75, align 8
  %77 = load i32, ptr %8, align 4
  %78 = zext i32 %77 to i64
  %79 = getelementptr ptr, ptr %76, i64 %78
  %80 = load ptr, ptr %79, align 8
  store ptr %80, ptr %10, align 8
  %81 = load ptr, ptr %5, align 8
  %82 = load ptr, ptr %10, align 8
  %83 = load ptr, ptr %6, align 8
  %84 = call i32 @pcapng_write_decryption_secrets_block(ptr noundef %81, ptr noundef %82, ptr noundef %83)
  %85 = icmp ne i32 %84, 0
  br i1 %85, label %87, label %86

86:                                               ; preds = %71
  store i32 0, ptr %4, align 4
  br label %93

87:                                               ; preds = %71
  br label %88

88:                                               ; preds = %87
  %89 = load i32, ptr %8, align 4
  %90 = add i32 %89, 1
  store i32 %90, ptr %8, align 4
  br label %63, !llvm.loop !14

91:                                               ; preds = %63
  br label %92

92:                                               ; preds = %91, %57
  store i32 1, ptr %4, align 4
  br label %93

93:                                               ; preds = %92, %86, %52, %23
  %94 = load i32, ptr %4, align 4
  ret i32 %94
}