; Function Attrs: nounwind uwtable
define internal range(i32 0, 2) i32 @pcapng_dump_open(ptr noundef initializes((56, 80)) %0, ptr noundef %1, ptr readnone captures(none) %2) #0 {
  %4 = alloca %struct.pcapng_option_header, align 2
  %5 = alloca %struct.write_options_t, align 8
  %6 = alloca %struct.compute_options_size_t, align 8
  %7 = alloca %struct.pcapng_block_header_s, align 4
  %8 = alloca %struct.pcapng_section_header_block_s, align 8
  %9 = getelementptr inbounds nuw i8, ptr %0, i64 56
  store ptr @pcapng_add_idb, ptr %9, align 8
  %10 = getelementptr inbounds nuw i8, ptr %0, i64 64
  store ptr @pcapng_dump, ptr %10, align 8
  %11 = getelementptr inbounds nuw i8, ptr %0, i64 72
  store ptr @pcapng_dump_finish, ptr %11, align 8
  call void @llvm.lifetime.start.p0(i64 8, ptr nonnull %7)
  call void @llvm.lifetime.start.p0(i64 16, ptr nonnull %8)
  %12 = getelementptr inbounds nuw i8, ptr %0, i64 88
  %13 = load ptr, ptr %12, align 8
  %.not.i = icmp eq ptr %13, null
  br i1 %.not.i, label %.thread.i, label %14

14:                                               ; preds = %3
  %15 = getelementptr inbounds nuw i8, ptr %13, i64 8
  %16 = load i32, ptr %15, align 8
  %.not24.i = icmp eq i32 %16, 0
  br i1 %.not24.i, label %.thread.i, label %18

.thread.i:                                        ; preds = %14, %3
  %17 = getelementptr inbounds nuw i8, ptr %7, i64 4
  store i32 28, ptr %17, align 4
  br label %29

18:                                               ; preds = %14
  %19 = load ptr, ptr %13, align 8
  %20 = load ptr, ptr %19, align 8
  %21 = getelementptr inbounds nuw i8, ptr %7, i64 4
  store i32 28, ptr %21, align 4
  %.not27.i = icmp eq ptr %20, null
  br i1 %.not27.i, label %29, label %22

22:                                               ; preds = %18
  call void @llvm.lifetime.start.p0(i64 16, ptr nonnull %6)
  store i32 0, ptr %6, align 8
  %23 = getelementptr inbounds nuw i8, ptr %6, i64 8
  store ptr @compute_shb_option_size, ptr %23, align 8
  %24 = call i32 @wtap_block_foreach_option(ptr noundef nonnull %20, ptr noundef nonnull @compute_block_option_size, ptr noundef nonnull %6) #16
  %25 = load i32, ptr %6, align 8
  %.not.i.i = icmp eq i32 %25, 0
  %26 = add i32 %25, 4
  %spec.select.i.i = select i1 %.not.i.i, i32 0, i32 %26
  call void @llvm.lifetime.end.p0(i64 16, ptr nonnull %6)
  %27 = add i32 %spec.select.i.i, 28
  store i32 %27, ptr %21, align 4
  %28 = icmp ne i32 %spec.select.i.i, 0
  br label %29

29:                                               ; preds = %22, %18, %.thread.i
  %.not2734.i = phi i1 [ false, %22 ], [ true, %18 ], [ true, %.thread.i ]
  %30 = phi ptr [ %21, %22 ], [ %21, %18 ], [ %17, %.thread.i ]
  %.02133.i = phi ptr [ %20, %22 ], [ null, %18 ], [ null, %.thread.i ]
  %or.cond.i = phi i1 [ %28, %22 ], [ false, %18 ], [ false, %.thread.i ]
  store i32 168627466, ptr %7, align 4
  %31 = call i32 @wtap_dump_file_write(ptr noundef nonnull %0, ptr noundef nonnull %7, i64 noundef 8, ptr noundef %1) #16
  %.not25.i = icmp eq i32 %31, 0
  br i1 %.not25.i, label %pcapng_write_section_header_block.exit.thread, label %32

32:                                               ; preds = %29
  store i32 439041101, ptr %8, align 8
  %33 = getelementptr inbounds nuw i8, ptr %8, i64 4
  store i16 1, ptr %33, align 4
  %34 = getelementptr inbounds nuw i8, ptr %8, i64 6
  store i16 0, ptr %34, align 2
  br i1 %.not2734.i, label %38, label %35

35:                                               ; preds = %32
  %36 = call ptr @wtap_block_get_mandatory_data(ptr noundef nonnull %.02133.i) #16
  %37 = load i64, ptr %36, align 8
  br label %38

38:                                               ; preds = %35, %32
  %.sink.i = phi i64 [ %37, %35 ], [ -1, %32 ]
  %39 = getelementptr inbounds nuw i8, ptr %8, i64 8
  store i64 %.sink.i, ptr %39, align 8
  %40 = call i32 @wtap_dump_file_write(ptr noundef nonnull %0, ptr noundef nonnull %8, i64 noundef 16, ptr noundef %1) #16
  %.not26.i = icmp eq i32 %40, 0
  br i1 %.not26.i, label %pcapng_write_section_header_block.exit.thread, label %41

41:                                               ; preds = %38
  br i1 %or.cond.i, label %42, label %pcapng_write_section_header_block.exit

42:                                               ; preds = %41
  call void @llvm.lifetime.start.p0(i64 24, ptr nonnull %5)
  store ptr %0, ptr %5, align 8
  %43 = getelementptr inbounds nuw i8, ptr %5, i64 8
  store ptr %1, ptr %43, align 8
  %44 = getelementptr inbounds nuw i8, ptr %5, i64 16
  store ptr @write_wtap_shb_option, ptr %44, align 8
  %45 = call i32 @wtap_block_foreach_option(ptr noundef %.02133.i, ptr noundef nonnull @write_block_option, ptr noundef nonnull %5) #16
  %.not.i30.i = icmp eq i32 %45, 0
  br i1 %.not.i30.i, label %write_options.exit.thread.i, label %write_options.exit.i

write_options.exit.thread.i:                      ; preds = %42
  call void @llvm.lifetime.end.p0(i64 24, ptr nonnull %5)
  br label %pcapng_write_section_header_block.exit.thread

write_options.exit.i:                             ; preds = %42
  call void @llvm.lifetime.start.p0(i64 4, ptr nonnull %4)
  store i16 0, ptr %4, align 2
  %46 = getelementptr inbounds nuw i8, ptr %4, i64 2
  store i16 0, ptr %46, align 2
  %47 = call i32 @wtap_dump_file_write(ptr noundef nonnull %0, ptr noundef nonnull %4, i64 noundef 4, ptr noundef %1) #16
  %.not.i.i.not.i = icmp eq i32 %47, 0
  call void @llvm.lifetime.end.p0(i64 4, ptr nonnull %4)
  call void @llvm.lifetime.end.p0(i64 24, ptr nonnull %5)
  br i1 %.not.i.i.not.i, label %pcapng_write_section_header_block.exit.thread, label %pcapng_write_section_header_block.exit

pcapng_write_section_header_block.exit.thread:    ; preds = %29, %38, %write_options.exit.i, %write_options.exit.thread.i
  call void @llvm.lifetime.end.p0(i64 8, ptr nonnull %7)
  call void @llvm.lifetime.end.p0(i64 16, ptr nonnull %8)
  br label %.loopexit

pcapng_write_section_header_block.exit:           ; preds = %41, %write_options.exit.i
  %48 = call i32 @wtap_dump_file_write(ptr noundef nonnull %0, ptr noundef nonnull %30, i64 noundef 4, ptr noundef %1) #16
  %.not29.i.not = icmp eq i32 %48, 0
  call void @llvm.lifetime.end.p0(i64 8, ptr nonnull %7)
  call void @llvm.lifetime.end.p0(i64 16, ptr nonnull %8)
  br i1 %.not29.i.not, label %.loopexit, label %.preheader28

.preheader28:                                     ; preds = %pcapng_write_section_header_block.exit
  %49 = getelementptr inbounds nuw i8, ptr %0, i64 104
  %50 = load ptr, ptr %49, align 8
  %51 = getelementptr inbounds nuw i8, ptr %50, i64 8
  %52 = load i32, ptr %51, align 8
  %.not = icmp eq i32 %52, 0
  br i1 %.not, label %._crit_edge, label %.lr.ph

53:                                               ; preds = %.lr.ph
  %indvars.iv.next = add nuw nsw i64 %indvars.iv, 1
  %54 = load ptr, ptr %49, align 8
  %55 = getelementptr inbounds nuw i8, ptr %54, i64 8
  %56 = load i32, ptr %55, align 8
  %57 = zext i32 %56 to i64
  %58 = icmp samesign ult i64 %indvars.iv.next, %57
  br i1 %58, label %.lr.ph, label %._crit_edge, !llvm.loop !13

.lr.ph:                                           ; preds = %.preheader28, %53
  %indvars.iv = phi i64 [ %indvars.iv.next, %53 ], [ 0, %.preheader28 ]
  %59 = phi ptr [ %54, %53 ], [ %50, %.preheader28 ]
  %60 = load ptr, ptr %59, align 8
  %61 = getelementptr ptr, ptr %60, i64 %indvars.iv
  %62 = load ptr, ptr %61, align 8
  %63 = call fastcc i32 @pcapng_write_if_descr_block(ptr noundef nonnull %0, ptr noundef %62, ptr noundef %1)
  %.not25 = icmp eq i32 %63, 0
  br i1 %.not25, label %.loopexit, label %53

._crit_edge:                                      ; preds = %53, %.preheader28
  %64 = getelementptr inbounds nuw i8, ptr %0, i64 112
  %65 = load ptr, ptr %64, align 8
  %.not23 = icmp eq ptr %65, null
  br i1 %.not23, label %.loopexit, label %.preheader

.preheader:                                       ; preds = %._crit_edge
  %66 = getelementptr inbounds nuw i8, ptr %65, i64 8
  %67 = load i32, ptr %66, align 8
  %.not35 = icmp eq i32 %67, 0
  br i1 %.not35, label %.loopexit, label %.lr.ph32

68:                                               ; preds = %.lr.ph32
  %indvars.iv.next39 = add nuw nsw i64 %indvars.iv38, 1
  %69 = load ptr, ptr %64, align 8
  %70 = getelementptr inbounds nuw i8, ptr %69, i64 8
  %71 = load i32, ptr %70, align 8
  %72 = zext i32 %71 to i64
  %73 = icmp samesign ult i64 %indvars.iv.next39, %72
  br i1 %73, label %.lr.ph32, label %.loopexit, !llvm.loop !14

.lr.ph32:                                         ; preds = %.preheader, %68
  %indvars.iv38 = phi i64 [ %indvars.iv.next39, %68 ], [ 0, %.preheader ]
  %74 = phi ptr [ %69, %68 ], [ %65, %.preheader ]
  %75 = load ptr, ptr %74, align 8
  %76 = getelementptr ptr, ptr %75, i64 %indvars.iv38
  %77 = load ptr, ptr %76, align 8
  %78 = call fastcc i32 @pcapng_write_decryption_secrets_block(ptr noundef nonnull %0, ptr noundef %77, ptr noundef %1)
  %.not24 = icmp eq i32 %78, 0
  br i1 %.not24, label %.loopexit, label %68

.loopexit:                                        ; preds = %.lr.ph, %.lr.ph32, %68, %.preheader, %pcapng_write_section_header_block.exit.thread, %._crit_edge, %pcapng_write_section_header_block.exit
  %.0 = phi i32 [ 0, %pcapng_write_section_header_block.exit ], [ 1, %._crit_edge ], [ 0, %pcapng_write_section_header_block.exit.thread ], [ 1, %.preheader ], [ 0, %.lr.ph32 ], [ 1, %68 ], [ 0, %.lr.ph ]
  ret i32 %.0
}